; Function Attrs: mustprogress nofree norecurse nosync nounwind willreturn memory(read, inaccessiblemem: none) uwtable
define i32 @Gia_ObjFromMiniFanin0Copy(ptr noundef readnone captures(none) %0, ptr noundef readonly captures(none) %1, ptr noundef readonly captures(none) %2, i32 noundef %3) local_unnamed_addr #0 {
  %5 = getelementptr i8, ptr %2, i64 16
  %.val = load ptr, ptr %5, align 8, !tbaa !3
  %6 = shl nsw i32 %3, 1
  %7 = sext i32 %6 to i64
  %8 = getelementptr inbounds i32, ptr %.val, i64 %7
  %9 = load i32, ptr %8, align 4, !tbaa !10
  %10 = ashr i32 %9, 1
  %11 = getelementptr i8, ptr %1, i64 8
  %.val4 = load ptr, ptr %11, align 8, !tbaa !11
  %12 = sext i32 %10 to i64
  %13 = getelementptr inbounds i32, ptr %.val4, i64 %12
  %14 = load i32, ptr %13, align 4, !tbaa !10
  %15 = and i32 %9, 1
  %16 = xor i32 %14, %15
  ret i32 %16
}